target datalayout = "e-m:e-p270:32:32-p271:32:32-p272:64:64-i64:64-i128:128-f80:128-n8:16:32:64-S128"
target triple = "x86_64-pc-linux-gnu"

%union.SourceSpan = type { i64 }
%struct.Signature_ = type <{ %struct.CalleeAttributes, i16, i8, i32, i32, [4 x i8], ptr }>
%struct.CalleeAttributes = type { i8 }
%struct.Decl_ = type { ptr, ptr, %union.SourceSpan, i64, %union.anon, i32, %union.anon.0, i64, ptr, ptr, ptr, %union.anon.1 }
%union.anon = type { ptr }
%union.anon.0 = type { i16 }
%union.anon.1 = type { %struct.FuncDecl }
%struct.FuncDecl = type { i32, [4 x i8], %struct.Signature_, i32, i32, %union.anon.8 }
%union.anon.8 = type { %struct.anon.9 }
%struct.anon.9 = type { i16, %union.anon.10 }
%union.anon.10 = type { ptr }
%struct.Type_ = type { i32, ptr, ptr, ptr, %union.anon.85, ptr, ptr, %union.anon.87 }
%union.anon.85 = type { ptr }
%union.anon.87 = type { %struct.TypeFunction }
%struct.TypeFunction = type { ptr, ptr, ptr }
%struct.TypeInfo_ = type { i16, ptr, %union.SourceSpan, %union.anon.56 }
%union.anon.56 = type { %struct.anon.57 }
%struct.anon.57 = type { ptr, ptr }
%struct.anon.2 = type { ptr, ptr, %union.anon.3 }
%union.anon.3 = type { %struct.BitStructDecl }
%struct.BitStructDecl = type { ptr, ptr, i8 }

@.str.2 = private unnamed_addr constant [36 x i8] c"FATAL ERROR %s -> in %s @ in %s:%d \00", align 1
@.str.3 = private unnamed_addr constant [22 x i8] c"Should be unreachable\00", align 1
@.str.4 = private unnamed_addr constant [111 x i8] c"generated/home/dtcxzyw/WorkSpace/Projects/compilers/llvm-opt-benchmark/bench/c3c/c3c/src/compiler/sema_decls.c\00", align 1
@.str.250 = private unnamed_addr constant [52 x i8] c"You cannot create a distinct type from an optional.\00", align 1
@__func__.sema_analyse_distinct = private unnamed_addr constant [22 x i8] c"sema_analyse_distinct\00", align 1
@.str.251 = private unnamed_addr constant [53 x i8] c"You cannot create a distinct type from a fault type.\00", align 1
@.str.252 = private unnamed_addr constant [55 x i8] c"You cannot create a distinct type from an error union.\00", align 1
@.str.253 = private unnamed_addr constant [61 x i8] c"You cannot create a distinct type from an interface pointer.\00", align 1
@.str.254 = private unnamed_addr constant [50 x i8] c"You cannot create a distinct type from an 'any*'.\00", align 1
@.str.255 = private unnamed_addr constant [39 x i8] c"Cannot create a distinct type from %s.\00", align 1

; Function Attrs: nounwind uwtable
define internal zeroext i1 @sema_analyse_attributes(ptr noundef %0, ptr noundef %1, ptr noundef %2, i32 noundef %3, ptr noundef %4) #0 {
  %6 = alloca ptr, align 8
  %7 = alloca ptr, align 8
  %8 = alloca ptr, align 8
  %9 = alloca i32, align 4
  %10 = alloca ptr, align 8
  store ptr %0, ptr %6, align 8
  store ptr %1, ptr %7, align 8
  store ptr %2, ptr %8, align 8
  store i32 %3, ptr %9, align 4
  store ptr %4, ptr %10, align 8
  %11 = load ptr, ptr %6, align 8
  %12 = load ptr, ptr %7, align 8
  %13 = load ptr, ptr %8, align 8
  %14 = load i32, ptr %9, align 4
  %15 = load ptr, ptr %10, align 8
  %16 = call zeroext i1 @sema_analyse_attributes_inner(ptr noundef %11, ptr noundef %12, ptr noundef %13, i32 noundef %14, ptr noundef null, ptr noundef %15)
  ret i1 %16
}

; Function Attrs: nounwind uwtable
define internal zeroext i1 @sema_analyse_distinct(ptr noundef %0, ptr noundef %1, ptr noundef %2) #0 {
  %4 = alloca ptr, align 8
  %5 = alloca i1, align 1
  %6 = alloca ptr, align 8
  %7 = alloca i32, align 4
  %8 = alloca i1, align 1
  %9 = alloca ptr, align 8
  %10 = alloca ptr, align 8
  %11 = alloca ptr, align 8
  %12 = alloca ptr, align 8
  %13 = alloca ptr, align 8
  store ptr %0, ptr %9, align 8
  store ptr %1, ptr %10, align 8
  store ptr %2, ptr %11, align 8
  %14 = load ptr, ptr %9, align 8
  %15 = load ptr, ptr %10, align 8
  %16 = load ptr, ptr %10, align 8
  %17 = getelementptr inbounds %struct.Decl_, ptr %16, i32 0, i32 9
  %18 = load ptr, ptr %17, align 8
  %19 = load ptr, ptr %11, align 8
  %20 = call zeroext i1 @sema_analyse_attributes(ptr noundef %14, ptr noundef %15, ptr noundef %18, i32 noundef 32768, ptr noundef %19)
  br i1 %20, label %22, label %21

21:                                               ; preds = %3
  store i1 false, ptr %8, align 1
  br label %124

22:                                               ; preds = %3
  %23 = load ptr, ptr %11, align 8
  %24 = load i8, ptr %23, align 1
  %25 = trunc i8 %24 to i1
  br i1 %25, label %26, label %27

26:                                               ; preds = %22
  store i1 true, ptr %8, align 1
  br label %124

27:                                               ; preds = %22
  %28 = load ptr, ptr %9, align 8
  %29 = load ptr, ptr %10, align 8
  %30 = call zeroext i1 @sema_resolve_implemented_interfaces(ptr noundef %28, ptr noundef %29, i1 noundef zeroext false)
  br i1 %30, label %42, label %31

31:                                               ; preds = %27
  %32 = load ptr, ptr %10, align 8
  store ptr %32, ptr %4, align 8
  %33 = load ptr, ptr %4, align 8
  %34 = getelementptr inbounds %struct.Decl_, ptr %33, i32 0, i32 3
  %35 = load i64, ptr %34, align 8
  %36 = and i64 %35, -128
  store i64 %36, ptr %34, align 8
  %37 = load ptr, ptr %4, align 8
  %38 = getelementptr inbounds %struct.Decl_, ptr %37, i32 0, i32 3
  %39 = load i64, ptr %38, align 8
  %40 = and i64 %39, -897
  %41 = or i64 %40, 256
  store i64 %41, ptr %38, align 8
  store i1 false, ptr %8, align 1
  br label %124

42:                                               ; preds = %27
  %43 = load ptr, ptr %10, align 8
  %44 = getelementptr inbounds %struct.Decl_, ptr %43, i32 0, i32 11
  %45 = getelementptr inbounds %struct.anon.2, ptr %44, i32 0, i32 2
  %46 = load ptr, ptr %45, align 8
  store ptr %46, ptr %12, align 8
  %47 = load ptr, ptr %9, align 8
  %48 = load ptr, ptr %12, align 8
  %49 = call zeroext i1 @sema_resolve_type_info(ptr noundef %47, ptr noundef %48, i32 noundef 0)
  br i1 %49, label %51, label %50

50:                                               ; preds = %42
  store i1 false, ptr %8, align 1
  br label %124

51:                                               ; preds = %42
  %52 = load ptr, ptr %12, align 8
  %53 = getelementptr inbounds %struct.TypeInfo_, ptr %52, i32 0, i32 1
  %54 = load ptr, ptr %53, align 8
  store ptr %54, ptr %6, align 8
  %55 = load ptr, ptr %6, align 8
  %56 = icmp ne ptr %55, null
  br i1 %56, label %58, label %57

57:                                               ; preds = %51
  store i1 false, ptr %5, align 1
  br label %71

58:                                               ; preds = %51
  %59 = load ptr, ptr %6, align 8
  %60 = load i32, ptr %59, align 8
  store i32 %60, ptr %7, align 4
  %61 = load i32, ptr %7, align 4
  %62 = icmp eq i32 %61, 31
  br i1 %62, label %63, label %68

63:                                               ; preds = %58
  %64 = load ptr, ptr %6, align 8
  %65 = getelementptr inbounds %struct.Type_, ptr %64, i32 0, i32 1
  %66 = load ptr, ptr %65, align 8
  %67 = load i32, ptr %66, align 8
  store i32 %67, ptr %7, align 4
  br label %68

68:                                               ; preds = %63, %58
  %69 = load i32, ptr %7, align 4
  %70 = icmp eq i32 %69, 40
  store i1 %70, ptr %5, align 1
  br label %71

71:                                               ; preds = %68, %57
  %72 = load i1, ptr %5, align 1
  br i1 %72, label %73, label %78

73:                                               ; preds = %71
  %74 = load ptr, ptr %10, align 8
  %75 = getelementptr inbounds %struct.Decl_, ptr %74, i32 0, i32 2
  %76 = getelementptr inbounds %union.SourceSpan, ptr %75, i32 0, i32 0
  %77 = load i64, ptr %76, align 8
  call void (i64, ptr, ...) @sema_error_at(i64 %77, ptr noundef @.str.250)
  store i1 false, ptr %8, align 1
  br label %124

78:                                               ; preds = %71
  %79 = load ptr, ptr %12, align 8
  %80 = getelementptr inbounds %struct.TypeInfo_, ptr %79, i32 0, i32 1
  %81 = load ptr, ptr %80, align 8
  %82 = getelementptr inbounds %struct.Type_, ptr %81, i32 0, i32 1
  %83 = load ptr, ptr %82, align 8
  %84 = load ptr, ptr %12, align 8
  %85 = getelementptr inbounds %struct.TypeInfo_, ptr %84, i32 0, i32 1
  store ptr %83, ptr %85, align 8
  store ptr %83, ptr %13, align 8
  %86 = load ptr, ptr %13, align 8
  %87 = getelementptr inbounds %struct.Type_, ptr %86, i32 0, i32 0
  %88 = load i32, ptr %87, align 8
  switch i32 %88, label %123 [
    i32 25, label %89
    i32 31, label %89
    i32 42, label %89
    i32 36, label %89
    i32 38, label %89
    i32 39, label %89
    i32 0, label %89
    i32 43, label %89
    i32 41, label %89
    i32 35, label %89
    i32 18, label %89
    i32 28, label %89
    i32 40, label %92
    i32 30, label %95
    i32 21, label %100
    i32 20, label %105
    i32 19, label %110
    i32 1, label %115
    i32 22, label %115
    i32 2, label %122
    i32 3, label %122
    i32 4, label %122
    i32 5, label %122
    i32 6, label %122
    i32 7, label %122
    i32 8, label %122
    i32 9, label %122
    i32 10, label %122
    i32 11, label %122
    i32 12, label %122
    i32 14, label %122
    i32 13, label %122
    i32 15, label %122
    i32 16, label %122
    i32 17, label %122
    i32 23, label %122
    i32 24, label %122
    i32 29, label %122
    i32 26, label %122
    i32 27, label %122
    i32 33, label %122
    i32 34, label %122
    i32 37, label %122
    i32 32, label %122
  ]

89:                                               ; preds = %78, %78, %78, %78, %78, %78, %78, %78, %78, %78, %78, %78
  br label %90

90:                                               ; preds = %89
  call void (ptr, ...) @error_exit(ptr noundef @.str.2, ptr noundef @.str.3, ptr noundef @__func__.sema_analyse_distinct, ptr noundef @.str.4, i32 noundef 1201) #6
  unreachable

91:                                               ; No predecessors!
  store i1 false, ptr %8, align 1
  br label %124

92:                                               ; preds = %78
  br label %93

93:                                               ; preds = %92
  call void (ptr, ...) @error_exit(ptr noundef @.str.2, ptr noundef @.str.3, ptr noundef @__func__.sema_analyse_distinct, ptr noundef @.str.4, i32 noundef 1204) #6
  unreachable

94:                                               ; No predecessors!
  br label %95

95:                                               ; preds = %94, %78
  %96 = load ptr, ptr %10, align 8
  %97 = getelementptr inbounds %struct.Decl_, ptr %96, i32 0, i32 2
  %98 = getelementptr inbounds %union.SourceSpan, ptr %97, i32 0, i32 0
  %99 = load i64, ptr %98, align 8
  call void (i64, ptr, ...) @sema_error_at(i64 %99, ptr noundef @.str.251)
  store i1 false, ptr %8, align 1
  br label %124

100:                                              ; preds = %78
  %101 = load ptr, ptr %10, align 8
  %102 = getelementptr inbounds %struct.Decl_, ptr %101, i32 0, i32 2
  %103 = getelementptr inbounds %union.SourceSpan, ptr %102, i32 0, i32 0
  %104 = load i64, ptr %103, align 8
  call void (i64, ptr, ...) @sema_error_at(i64 %104, ptr noundef @.str.252)
  store i1 false, ptr %8, align 1
  br label %124

105:                                              ; preds = %78
  %106 = load ptr, ptr %10, align 8
  %107 = getelementptr inbounds %struct.Decl_, ptr %106, i32 0, i32 2
  %108 = getelementptr inbounds %union.SourceSpan, ptr %107, i32 0, i32 0
  %109 = load i64, ptr %108, align 8
  call void (i64, ptr, ...) @sema_error_at(i64 %109, ptr noundef @.str.253)
  store i1 false, ptr %8, align 1
  br label %124

110:                                              ; preds = %78
  %111 = load ptr, ptr %10, align 8
  %112 = getelementptr inbounds %struct.Decl_, ptr %111, i32 0, i32 2
  %113 = getelementptr inbounds %union.SourceSpan, ptr %112, i32 0, i32 0
  %114 = load i64, ptr %113, align 8
  call void (i64, ptr, ...) @sema_error_at(i64 %114, ptr noundef @.str.254)
  store i1 false, ptr %8, align 1
  br label %124

115:                                              ; preds = %78, %78
  %116 = load ptr, ptr %10, align 8
  %117 = getelementptr inbounds %struct.Decl_, ptr %116, i32 0, i32 2
  %118 = load ptr, ptr %13, align 8
  %119 = call ptr @type_quoted_error_string(ptr noundef %118)
  %120 = getelementptr inbounds %union.SourceSpan, ptr %117, i32 0, i32 0
  %121 = load i64, ptr %120, align 8
  call void (i64, ptr, ...) @sema_error_at(i64 %121, ptr noundef @.str.255, ptr noundef %119)
  br label %122

122:                                              ; preds = %115, %78, %78, %78, %78, %78, %78, %78, %78, %78, %78, %78, %78, %78, %78, %78, %78, %78, %78, %78, %78, %78, %78, %78, %78, %78
  br label %123

123:                                              ; preds = %122, %78
  store i1 true, ptr %8, align 1
  br label %124

124:                                              ; preds = %123, %110, %105, %100, %95, %91, %73, %50, %31, %26, %21
  %125 = load i1, ptr %8, align 1
  ret i1 %125
}