; Function Attrs: nounwind uwtable
define internal fastcc noundef zeroext i1 @sema_analyse_distinct(ptr noundef %0, ptr noundef %1, ptr nocapture noundef %2) unnamed_addr #0 {
  %4 = getelementptr inbounds i8, ptr %1, i64 64
  %5 = load ptr, ptr %4, align 8
  %6 = tail call fastcc noundef zeroext i1 @sema_analyse_attributes_inner(ptr noundef %0, ptr noundef %1, ptr noundef %5, i32 noundef 32768, ptr noundef null, ptr noundef %2)
  br i1 %6, label %7, label %58

7:                                                ; preds = %3
  %8 = load i8, ptr %2, align 1
  %9 = trunc i8 %8 to i1
  br i1 %9, label %58, label %10

10:                                               ; preds = %7
  %11 = getelementptr i8, ptr %1, i64 80
  %.val = load ptr, ptr %11, align 8
  %12 = tail call fastcc zeroext i1 @sema_resolve_implemented_interfaces(ptr noundef %0, ptr %.val, i1 noundef zeroext false)
  br i1 %12, label %18, label %13

13:                                               ; preds = %10
  %14 = getelementptr inbounds i8, ptr %1, i64 24
  %15 = load i64, ptr %14, align 8
  %16 = and i64 %15, -1024
  %17 = or disjoint i64 %16, 256
  store i64 %17, ptr %14, align 8
  br label %58

18:                                               ; preds = %10
  %19 = getelementptr inbounds i8, ptr %1, i64 96
  %20 = load ptr, ptr %19, align 8
  %21 = tail call zeroext i1 @sema_resolve_type_info(ptr noundef %0, ptr noundef %20, i32 noundef 0) #10
  br i1 %21, label %22, label %58

22:                                               ; preds = %18
  %23 = getelementptr inbounds i8, ptr %20, i64 8
  %24 = load ptr, ptr %23, align 8
  %.not = icmp eq ptr %24, null
  br i1 %.not, label %.critedge, label %25

25:                                               ; preds = %22
  %26 = load i32, ptr %24, align 8
  %27 = icmp eq i32 %26, 31
  br i1 %27, label %28, label %32

28:                                               ; preds = %25
  %29 = getelementptr inbounds i8, ptr %24, i64 8
  %30 = load ptr, ptr %29, align 8
  %31 = load i32, ptr %30, align 8
  br label %32

32:                                               ; preds = %28, %25
  %.030 = phi i32 [ %31, %28 ], [ %26, %25 ]
  %33 = icmp eq i32 %.030, 40
  br i1 %33, label %34, label %.critedge

34:                                               ; preds = %32
  %35 = getelementptr inbounds i8, ptr %1, i64 16
  %36 = load i64, ptr %35, align 8
  tail call void (i64, ptr, ...) @sema_error_at(i64 %36, ptr noundef nonnull @.str.250) #10
  br label %58

.critedge:                                        ; preds = %22, %32
  %37 = getelementptr inbounds i8, ptr %24, i64 8
  %38 = load ptr, ptr %37, align 8
  store ptr %38, ptr %23, align 8
  %39 = load i32, ptr %38, align 8
  switch i32 %39, label %58 [
    i32 25, label %40
    i32 31, label %40
    i32 42, label %40
    i32 36, label %40
    i32 38, label %40
    i32 39, label %40
    i32 0, label %40
    i32 43, label %40
    i32 41, label %40
    i32 35, label %40
    i32 18, label %40
    i32 28, label %40
    i32 40, label %41
    i32 30, label %42
    i32 21, label %45
    i32 20, label %48
    i32 19, label %51
    i32 1, label %54
    i32 22, label %54
  ]

40:                                               ; preds = %.critedge, %.critedge, %.critedge, %.critedge, %.critedge, %.critedge, %.critedge, %.critedge, %.critedge, %.critedge, %.critedge, %.critedge
  tail call void (ptr, ...) @error_exit(ptr noundef nonnull @.str.2, ptr noundef nonnull @.str.3, ptr noundef nonnull @__func__.sema_analyse_distinct, ptr noundef nonnull @.str.4, i32 noundef 1201) #11
  unreachable

41:                                               ; preds = %.critedge
  tail call void (ptr, ...) @error_exit(ptr noundef nonnull @.str.2, ptr noundef nonnull @.str.3, ptr noundef nonnull @__func__.sema_analyse_distinct, ptr noundef nonnull @.str.4, i32 noundef 1204) #11
  unreachable

42:                                               ; preds = %.critedge
  %43 = getelementptr inbounds i8, ptr %1, i64 16
  %44 = load i64, ptr %43, align 8
  tail call void (i64, ptr, ...) @sema_error_at(i64 %44, ptr noundef nonnull @.str.251) #10
  br label %58

45:                                               ; preds = %.critedge
  %46 = getelementptr inbounds i8, ptr %1, i64 16
  %47 = load i64, ptr %46, align 8
  tail call void (i64, ptr, ...) @sema_error_at(i64 %47, ptr noundef nonnull @.str.252) #10
  br label %58

48:                                               ; preds = %.critedge
  %49 = getelementptr inbounds i8, ptr %1, i64 16
  %50 = load i64, ptr %49, align 8
  tail call void (i64, ptr, ...) @sema_error_at(i64 %50, ptr noundef nonnull @.str.253) #10
  br label %58

51:                                               ; preds = %.critedge
  %52 = getelementptr inbounds i8, ptr %1, i64 16
  %53 = load i64, ptr %52, align 8
  tail call void (i64, ptr, ...) @sema_error_at(i64 %53, ptr noundef nonnull @.str.254) #10
  br label %58

54:                                               ; preds = %.critedge, %.critedge
  %55 = getelementptr inbounds i8, ptr %1, i64 16
  %56 = tail call ptr @type_quoted_error_string(ptr noundef nonnull %38) #10
  %57 = load i64, ptr %55, align 8
  tail call void (i64, ptr, ...) @sema_error_at(i64 %57, ptr noundef nonnull @.str.255, ptr noundef %56) #10
  br label %58

58:                                               ; preds = %.critedge, %54, %18, %7, %3, %51, %48, %45, %42, %34, %13
  %.031 = phi i1 [ false, %34 ], [ false, %51 ], [ false, %48 ], [ false, %45 ], [ false, %42 ], [ false, %13 ], [ false, %3 ], [ true, %7 ], [ false, %18 ], [ true, %54 ], [ true, %.critedge ]
  ret i1 %.031
}